target datalayout = "e-m:e-p270:32:32-p271:32:32-p272:64:64-i64:64-i128:128-f80:128-n8:16:32:64-S128"
target triple = "x86_64-pc-linux-gnu"

%struct.TwoPhaseStateData = type { ptr, i32, [0 x ptr] }
%struct.GlobalTransactionData = type { ptr, i32, i64, i64, i64, i32, i32, i32, i8, i8, i8, [200 x i8] }
%struct.pg_atomic_uint32 = type { i32 }
%struct.LWLock = type { i16, %struct.pg_atomic_uint32, %struct.proclist_head }
%struct.proclist_head = type { i32, i32 }
%union.LWLockPadded = type { %struct.LWLock, [112 x i8] }

@TwoPhaseState = internal global ptr null, align 8
@MainLWLockArray = external global ptr, align 8

; Function Attrs: nounwind uwtable
define dso_local void @StandbyRecoverPreparedTransactions() #0 {
  %1 = alloca i32, align 4
  %2 = alloca i32, align 4
  %3 = alloca ptr, align 8
  %4 = alloca ptr, align 8
  call void @llvm.lifetime.start.p0(i64 4, ptr %1) #12
  %5 = load ptr, ptr @MainLWLockArray, align 8
  %6 = getelementptr inbounds %union.LWLockPadded, ptr %5, i64 18
  %7 = call zeroext i1 @LWLockAcquire(ptr noundef %6, i32 noundef 0)
  store i32 0, ptr %1, align 4
  br label %8

8:                                                ; preds = %38, %0
  %9 = load i32, ptr %1, align 4
  %10 = load ptr, ptr @TwoPhaseState, align 8
  %11 = getelementptr inbounds nuw %struct.TwoPhaseStateData, ptr %10, i32 0, i32 1
  %12 = load i32, ptr %11, align 8
  %13 = icmp slt i32 %9, %12
  br i1 %13, label %14, label %41

14:                                               ; preds = %8
  call void @llvm.lifetime.start.p0(i64 4, ptr %2) #12
  call void @llvm.lifetime.start.p0(i64 8, ptr %3) #12
  call void @llvm.lifetime.start.p0(i64 8, ptr %4) #12
  %15 = load ptr, ptr @TwoPhaseState, align 8
  %16 = getelementptr inbounds nuw %struct.TwoPhaseStateData, ptr %15, i32 0, i32 2
  %17 = load i32, ptr %1, align 4
  %18 = sext i32 %17 to i64
  %19 = getelementptr inbounds [0 x ptr], ptr %16, i64 0, i64 %18
  %20 = load ptr, ptr %19, align 8
  store ptr %20, ptr %4, align 8
  %21 = load ptr, ptr %4, align 8
  %22 = getelementptr inbounds nuw %struct.GlobalTransactionData, ptr %21, i32 0, i32 5
  %23 = load i32, ptr %22, align 8
  store i32 %23, ptr %2, align 4
  %24 = load i32, ptr %2, align 4
  %25 = load ptr, ptr %4, align 8
  %26 = getelementptr inbounds nuw %struct.GlobalTransactionData, ptr %25, i32 0, i32 3
  %27 = load i64, ptr %26, align 8
  %28 = load ptr, ptr %4, align 8
  %29 = getelementptr inbounds nuw %struct.GlobalTransactionData, ptr %28, i32 0, i32 9
  %30 = load i8, ptr %29, align 1, !range !4, !noundef !5
  %31 = trunc i8 %30 to i1
  %32 = call ptr @ProcessTwoPhaseBuffer(i32 noundef %24, i64 noundef %27, i1 noundef zeroext %31, i1 noundef zeroext true, i1 noundef zeroext false)
  store ptr %32, ptr %3, align 8
  %33 = load ptr, ptr %3, align 8
  %34 = icmp ne ptr %33, null
  br i1 %34, label %35, label %37

35:                                               ; preds = %14
  %36 = load ptr, ptr %3, align 8
  call void @pfree(ptr noundef %36)
  br label %37

37:                                               ; preds = %35, %14
  call void @llvm.lifetime.end.p0(i64 8, ptr %4) #12
  call void @llvm.lifetime.end.p0(i64 8, ptr %3) #12
  call void @llvm.lifetime.end.p0(i64 4, ptr %2) #12
  br label %38

38:                                               ; preds = %37
  %39 = load i32, ptr %1, align 4
  %40 = add i32 %39, 1
  store i32 %40, ptr %1, align 4
  br label %8, !llvm.loop !22

41:                                               ; preds = %8
  %42 = load ptr, ptr @MainLWLockArray, align 8
  %43 = getelementptr inbounds %union.LWLockPadded, ptr %42, i64 18
  call void @LWLockRelease(ptr noundef %43)
  call void @llvm.lifetime.end.p0(i64 4, ptr %1) #12
  ret void
}