; Function Attrs: nounwind uwtable
define dso_local void @StandbyRecoverPreparedTransactions() local_unnamed_addr #0 {
  %1 = load ptr, ptr @MainLWLockArray, align 8
  %2 = getelementptr inbounds nuw i8, ptr %1, i64 2304
  %3 = tail call zeroext i1 @LWLockAcquire(ptr noundef nonnull %2, i32 noundef 0) #14
  %4 = load ptr, ptr @TwoPhaseState, align 8
  %5 = getelementptr inbounds nuw i8, ptr %4, i64 8
  %6 = load i32, ptr %5, align 8
  %7 = icmp sgt i32 %6, 0
  br i1 %7, label %.lr.ph, label %._crit_edge

.lr.ph:                                           ; preds = %0, %21
  %indvars.iv = phi i64 [ %indvars.iv.next, %21 ], [ 0, %0 ]
  %8 = phi ptr [ %22, %21 ], [ %4, %0 ]
  %9 = getelementptr inbounds nuw i8, ptr %8, i64 16
  %10 = getelementptr inbounds nuw [0 x ptr], ptr %9, i64 0, i64 %indvars.iv
  %11 = load ptr, ptr %10, align 8
  %12 = getelementptr inbounds nuw i8, ptr %11, i64 40
  %13 = load i32, ptr %12, align 8
  %14 = getelementptr inbounds nuw i8, ptr %11, i64 24
  %15 = load i64, ptr %14, align 8
  %16 = getelementptr inbounds nuw i8, ptr %11, i64 53
  %17 = load i8, ptr %16, align 1, !range !4, !noundef !5
  %18 = trunc nuw i8 %17 to i1
  %19 = tail call fastcc ptr @ProcessTwoPhaseBuffer(i32 noundef %13, i64 noundef %15, i1 noundef zeroext %18, i1 noundef zeroext true, i1 noundef zeroext false)
  %.not = icmp eq ptr %19, null
  br i1 %.not, label %21, label %20

20:                                               ; preds = %.lr.ph
  tail call void @pfree(ptr noundef nonnull %19) #14
  br label %21

21:                                               ; preds = %20, %.lr.ph
  %indvars.iv.next = add nuw nsw i64 %indvars.iv, 1
  %22 = load ptr, ptr @TwoPhaseState, align 8
  %23 = getelementptr inbounds nuw i8, ptr %22, i64 8
  %24 = load i32, ptr %23, align 8
  %25 = sext i32 %24 to i64
  %26 = icmp slt i64 %indvars.iv.next, %25
  br i1 %26, label %.lr.ph, label %._crit_edge, !llvm.loop !22

._crit_edge:                                      ; preds = %21, %0
  %27 = load ptr, ptr @MainLWLockArray, align 8
  %28 = getelementptr inbounds nuw i8, ptr %27, i64 2304
  tail call void @LWLockRelease(ptr noundef nonnull %28) #14
  ret void
}